; Function Attrs: nofree norecurse nosync nounwind memory(none) uwtable
define range(i32 0, 2) i32 @ff_vvc_ref_filter_flag_derive(i32 noundef %0) local_unnamed_addr #5 {
  br label %.lr.ph.i

.lr.ph.i:                                         ; preds = %11, %1
  %.01621.i = phi i64 [ %.1.i, %11 ], [ 0, %1 ]
  %.01720.i = phi i64 [ %.118.i, %11 ], [ 12, %1 ]
  %2 = add i64 %.01720.i, %.01621.i
  %3 = lshr i64 %2, 1
  %4 = shl i64 %3, 2
  %5 = getelementptr inbounds nuw i8, ptr @ff_vvc_ref_filter_flag_derive.modes, i64 %4
  %6 = load i32, ptr %5, align 4, !tbaa !7
  %7 = icmp slt i32 %0, %6
  br i1 %7, label %11, label %8

8:                                                ; preds = %.lr.ph.i
  %.not.i = icmp eq i32 %0, %6
  br i1 %.not.i, label %bsearch.exit, label %9

9:                                                ; preds = %8
  %10 = add nuw i64 %3, 1
  br label %11

11:                                               ; preds = %9, %.lr.ph.i
  %.118.i = phi i64 [ %.01720.i, %9 ], [ %3, %.lr.ph.i ]
  %.1.i = phi i64 [ %10, %9 ], [ %.01621.i, %.lr.ph.i ]
  %12 = icmp ult i64 %.1.i, %.118.i
  br i1 %12, label %.lr.ph.i, label %bsearch.exit, !llvm.loop !98

bsearch.exit:                                     ; preds = %8, %11
  %.0.i = phi i32 [ 0, %11 ], [ 1, %8 ]
  ret i32 %.0.i
}